target datalayout = "e-m:e-p270:32:32-p271:32:32-p272:64:64-i64:64-i128:128-f80:128-n8:16:32:64-S128"
target triple = "x86_64-pc-linux-gnu"

%struct.Exnode_s = type { i64, i64, i8, %union.anon.0, %union.Exdata_u }
%union.anon.0 = type { ptr }
%union.Exdata_u = type { %struct.anon.3 }
%struct.anon.3 = type { ptr, ptr, ptr, ptr }
%struct.anon = type { %union.EX_STYPE, ptr }
%union.EX_STYPE = type { ptr }

; Function Attrs: nounwind uwtable
define internal ptr @int2ptr(i64 noundef %0) #0 {
  %2 = alloca i64, align 8
  store i64 %0, ptr %2, align 8, !tbaa !99
  %3 = load i64, ptr %2, align 8, !tbaa !99
  %4 = inttoptr i64 %3 to ptr
  ret ptr %4
}

; Function Attrs: nounwind uwtable
define internal i32 @binary(ptr noundef %0, ptr noundef %1, ptr noundef %2, i32 noundef %3) #0 {
  %5 = alloca i32, align 4
  %6 = alloca ptr, align 8
  %7 = alloca ptr, align 8
  %8 = alloca ptr, align 8
  %9 = alloca i32, align 4
  %10 = alloca ptr, align 8
  %11 = alloca ptr, align 8
  %12 = alloca i32, align 4
  %13 = alloca i32, align 4
  %14 = alloca i64, align 8
  %15 = alloca i64, align 8
  store ptr %0, ptr %6, align 8, !tbaa !75
  store ptr %1, ptr %7, align 8, !tbaa !75
  store ptr %2, ptr %8, align 8, !tbaa !75
  store i32 %3, ptr %9, align 4, !tbaa !26
  call void @llvm.lifetime.start.p0(i64 8, ptr %10) #16
  call void @llvm.lifetime.start.p0(i64 8, ptr %11) #16
  call void @llvm.lifetime.start.p0(i64 4, ptr %12) #16
  store i32 -1, ptr %12, align 4, !tbaa !26
  %16 = load ptr, ptr %6, align 8, !tbaa !75
  %17 = getelementptr inbounds nuw %struct.Exnode_s, ptr %16, i32 0, i32 0
  %18 = load i64, ptr %17, align 8, !tbaa !95
  %19 = icmp sgt i64 %18, 258
  br i1 %19, label %20, label %21

20:                                               ; preds = %4
  store i32 -1, ptr %5, align 4
  store i32 1, ptr %13, align 4
  br label %263

21:                                               ; preds = %4
  %22 = load ptr, ptr %8, align 8, !tbaa !75
  %23 = icmp ne ptr %22, null
  br i1 %23, label %24, label %30

24:                                               ; preds = %21
  %25 = load ptr, ptr %8, align 8, !tbaa !75
  %26 = getelementptr inbounds nuw %struct.Exnode_s, ptr %25, i32 0, i32 0
  %27 = load i64, ptr %26, align 8, !tbaa !95
  %28 = icmp sgt i64 %27, 258
  br i1 %28, label %29, label %30

29:                                               ; preds = %24
  store i32 -1, ptr %5, align 4
  store i32 1, ptr %13, align 4
  br label %263

30:                                               ; preds = %24, %21
  %31 = load ptr, ptr %7, align 8, !tbaa !75
  %32 = getelementptr inbounds nuw %struct.Exnode_s, ptr %31, i32 0, i32 0
  %33 = load i64, ptr %32, align 8, !tbaa !95
  %34 = icmp sge i64 %33, 259
  br i1 %34, label %35, label %40

35:                                               ; preds = %30
  %36 = load ptr, ptr %7, align 8, !tbaa !75
  %37 = getelementptr inbounds nuw %struct.Exnode_s, ptr %36, i32 0, i32 0
  %38 = load i64, ptr %37, align 8, !tbaa !95
  %39 = icmp sle i64 %38, 261
  br i1 %39, label %41, label %40

40:                                               ; preds = %35, %30
  store i32 -1, ptr %5, align 4
  store i32 1, ptr %13, align 4
  br label %263

41:                                               ; preds = %35
  %42 = load ptr, ptr %6, align 8, !tbaa !75
  %43 = getelementptr inbounds nuw %struct.Exnode_s, ptr %42, i32 0, i32 0
  %44 = load i64, ptr %43, align 8, !tbaa !95
  %45 = icmp eq i64 %44, 31
  br i1 %45, label %46, label %150

46:                                               ; preds = %41
  %47 = load ptr, ptr %8, align 8, !tbaa !75
  %48 = icmp ne ptr %47, null
  br i1 %48, label %50, label %49

49:                                               ; preds = %46
  store i32 -1, ptr %5, align 4
  store i32 1, ptr %13, align 4
  br label %263

50:                                               ; preds = %46
  %51 = load ptr, ptr %8, align 8, !tbaa !75
  %52 = getelementptr inbounds nuw %struct.Exnode_s, ptr %51, i32 0, i32 0
  %53 = load i64, ptr %52, align 8, !tbaa !95
  %54 = icmp ne i64 %53, 31
  br i1 %54, label %55, label %56

55:                                               ; preds = %50
  store i32 -1, ptr %5, align 4
  store i32 1, ptr %13, align 4
  br label %263

56:                                               ; preds = %50
  call void @llvm.lifetime.start.p0(i64 8, ptr %14) #16
  %57 = load ptr, ptr %6, align 8, !tbaa !75
  %58 = getelementptr inbounds nuw %struct.Exnode_s, ptr %57, i32 0, i32 4
  %59 = getelementptr inbounds nuw %struct.anon, ptr %58, i32 0, i32 0
  %60 = load i64, ptr %59, align 8, !tbaa !97
  store i64 %60, ptr %14, align 8, !tbaa !99
  call void @llvm.lifetime.start.p0(i64 8, ptr %15) #16
  %61 = load ptr, ptr %8, align 8, !tbaa !75
  %62 = getelementptr inbounds nuw %struct.Exnode_s, ptr %61, i32 0, i32 4
  %63 = getelementptr inbounds nuw %struct.anon, ptr %62, i32 0, i32 0
  %64 = load i64, ptr %63, align 8, !tbaa !97
  store i64 %64, ptr %15, align 8, !tbaa !99
  %65 = load ptr, ptr %7, align 8, !tbaa !75
  %66 = getelementptr inbounds nuw %struct.Exnode_s, ptr %65, i32 0, i32 1
  %67 = load i64, ptr %66, align 8, !tbaa !101
  switch i64 %67, label %146 [
    i64 324, label %68
    i64 325, label %81
    i64 60, label %94
    i64 326, label %107
    i64 327, label %120
    i64 62, label %133
  ]

68:                                               ; preds = %56
  %69 = load i32, ptr %9, align 4, !tbaa !26
  %70 = icmp ne i32 %69, 0
  br i1 %70, label %71, label %72

71:                                               ; preds = %68
  store i32 0, ptr %5, align 4
  store i32 1, ptr %13, align 4
  br label %147

72:                                               ; preds = %68
  %73 = load i64, ptr %14, align 8, !tbaa !99
  %74 = load i64, ptr %15, align 8, !tbaa !99
  %75 = icmp eq i64 %73, %74
  %76 = zext i1 %75 to i32
  %77 = sext i32 %76 to i64
  %78 = load ptr, ptr %6, align 8, !tbaa !75
  %79 = getelementptr inbounds nuw %struct.Exnode_s, ptr %78, i32 0, i32 4
  %80 = getelementptr inbounds nuw %struct.anon, ptr %79, i32 0, i32 0
  store i64 %77, ptr %80, align 8, !tbaa !97
  store i32 0, ptr %12, align 4, !tbaa !26
  br label %146

81:                                               ; preds = %56
  %82 = load i32, ptr %9, align 4, !tbaa !26
  %83 = icmp ne i32 %82, 0
  br i1 %83, label %84, label %85

84:                                               ; preds = %81
  store i32 0, ptr %5, align 4
  store i32 1, ptr %13, align 4
  br label %147

85:                                               ; preds = %81
  %86 = load i64, ptr %14, align 8, !tbaa !99
  %87 = load i64, ptr %15, align 8, !tbaa !99
  %88 = icmp ne i64 %86, %87
  %89 = zext i1 %88 to i32
  %90 = sext i32 %89 to i64
  %91 = load ptr, ptr %6, align 8, !tbaa !75
  %92 = getelementptr inbounds nuw %struct.Exnode_s, ptr %91, i32 0, i32 4
  %93 = getelementptr inbounds nuw %struct.anon, ptr %92, i32 0, i32 0
  store i64 %90, ptr %93, align 8, !tbaa !97
  store i32 0, ptr %12, align 4, !tbaa !26
  br label %146

94:                                               ; preds = %56
  %95 = load i32, ptr %9, align 4, !tbaa !26
  %96 = icmp ne i32 %95, 0
  br i1 %96, label %97, label %98

97:                                               ; preds = %94
  store i32 0, ptr %5, align 4
  store i32 1, ptr %13, align 4
  br label %147

98:                                               ; preds = %94
  %99 = load i64, ptr %14, align 8, !tbaa !99
  %100 = load i64, ptr %15, align 8, !tbaa !99
  %101 = icmp slt i64 %99, %100
  %102 = zext i1 %101 to i32
  %103 = sext i32 %102 to i64
  %104 = load ptr, ptr %6, align 8, !tbaa !75
  %105 = getelementptr inbounds nuw %struct.Exnode_s, ptr %104, i32 0, i32 4
  %106 = getelementptr inbounds nuw %struct.anon, ptr %105, i32 0, i32 0
  store i64 %103, ptr %106, align 8, !tbaa !97
  store i32 0, ptr %12, align 4, !tbaa !26
  br label %146

107:                                              ; preds = %56
  %108 = load i32, ptr %9, align 4, !tbaa !26
  %109 = icmp ne i32 %108, 0
  br i1 %109, label %110, label %111

110:                                              ; preds = %107
  store i32 0, ptr %5, align 4
  store i32 1, ptr %13, align 4
  br label %147

111:                                              ; preds = %107
  %112 = load i64, ptr %14, align 8, !tbaa !99
  %113 = load i64, ptr %15, align 8, !tbaa !99
  %114 = icmp sle i64 %112, %113
  %115 = zext i1 %114 to i32
  %116 = sext i32 %115 to i64
  %117 = load ptr, ptr %6, align 8, !tbaa !75
  %118 = getelementptr inbounds nuw %struct.Exnode_s, ptr %117, i32 0, i32 4
  %119 = getelementptr inbounds nuw %struct.anon, ptr %118, i32 0, i32 0
  store i64 %116, ptr %119, align 8, !tbaa !97
  store i32 0, ptr %12, align 4, !tbaa !26
  br label %146

120:                                              ; preds = %56
  %121 = load i32, ptr %9, align 4, !tbaa !26
  %122 = icmp ne i32 %121, 0
  br i1 %122, label %123, label %124

123:                                              ; preds = %120
  store i32 0, ptr %5, align 4
  store i32 1, ptr %13, align 4
  br label %147

124:                                              ; preds = %120
  %125 = load i64, ptr %14, align 8, !tbaa !99
  %126 = load i64, ptr %15, align 8, !tbaa !99
  %127 = icmp sge i64 %125, %126
  %128 = zext i1 %127 to i32
  %129 = sext i32 %128 to i64
  %130 = load ptr, ptr %6, align 8, !tbaa !75
  %131 = getelementptr inbounds nuw %struct.Exnode_s, ptr %130, i32 0, i32 4
  %132 = getelementptr inbounds nuw %struct.anon, ptr %131, i32 0, i32 0
  store i64 %129, ptr %132, align 8, !tbaa !97
  store i32 0, ptr %12, align 4, !tbaa !26
  br label %146

133:                                              ; preds = %56
  %134 = load i32, ptr %9, align 4, !tbaa !26
  %135 = icmp ne i32 %134, 0
  br i1 %135, label %136, label %137

136:                                              ; preds = %133
  store i32 0, ptr %5, align 4
  store i32 1, ptr %13, align 4
  br label %147

137:                                              ; preds = %133
  %138 = load i64, ptr %14, align 8, !tbaa !99
  %139 = load i64, ptr %15, align 8, !tbaa !99
  %140 = icmp sgt i64 %138, %139
  %141 = zext i1 %140 to i32
  %142 = sext i32 %141 to i64
  %143 = load ptr, ptr %6, align 8, !tbaa !75
  %144 = getelementptr inbounds nuw %struct.Exnode_s, ptr %143, i32 0, i32 4
  %145 = getelementptr inbounds nuw %struct.anon, ptr %144, i32 0, i32 0
  store i64 %142, ptr %145, align 8, !tbaa !97
  store i32 0, ptr %12, align 4, !tbaa !26
  br label %146

146:                                              ; preds = %56, %137, %124, %111, %98, %85, %72
  store i32 0, ptr %13, align 4
  br label %147

147:                                              ; preds = %146, %136, %123, %110, %97, %84, %71
  call void @llvm.lifetime.end.p0(i64 8, ptr %15) #16
  call void @llvm.lifetime.end.p0(i64 8, ptr %14) #16
  %148 = load i32, ptr %13, align 4
  switch i32 %148, label %263 [
    i32 0, label %149
  ]

149:                                              ; preds = %147
  br label %150

150:                                              ; preds = %149, %41
  %151 = load ptr, ptr %8, align 8, !tbaa !75
  %152 = icmp ne ptr %151, null
  br i1 %152, label %153, label %159

153:                                              ; preds = %150
  %154 = load ptr, ptr %8, align 8, !tbaa !75
  %155 = getelementptr inbounds nuw %struct.Exnode_s, ptr %154, i32 0, i32 0
  %156 = load i64, ptr %155, align 8, !tbaa !95
  %157 = icmp eq i64 %156, 31
  br i1 %157, label %158, label %159

158:                                              ; preds = %153
  store i32 -1, ptr %5, align 4
  store i32 1, ptr %13, align 4
  br label %263

159:                                              ; preds = %153, %150
  %160 = load ptr, ptr %6, align 8, !tbaa !75
  %161 = getelementptr inbounds nuw %struct.Exnode_s, ptr %160, i32 0, i32 4
  %162 = getelementptr inbounds nuw %struct.anon, ptr %161, i32 0, i32 0
  %163 = load i64, ptr %162, align 8, !tbaa !97
  %164 = call ptr @int2ptr(i64 noundef %163)
  store ptr %164, ptr %10, align 8, !tbaa !98
  %165 = load ptr, ptr %8, align 8, !tbaa !75
  %166 = icmp ne ptr %165, null
  br i1 %166, label %167, label %173

167:                                              ; preds = %159
  %168 = load ptr, ptr %8, align 8, !tbaa !75
  %169 = getelementptr inbounds nuw %struct.Exnode_s, ptr %168, i32 0, i32 4
  %170 = getelementptr inbounds nuw %struct.anon, ptr %169, i32 0, i32 0
  %171 = load i64, ptr %170, align 8, !tbaa !97
  %172 = call ptr @int2ptr(i64 noundef %171)
  store ptr %172, ptr %11, align 8, !tbaa !98
  br label %174

173:                                              ; preds = %159
  store ptr null, ptr %11, align 8, !tbaa !98
  br label %174

174:                                              ; preds = %173, %167
  %175 = load ptr, ptr %7, align 8, !tbaa !75
  %176 = getelementptr inbounds nuw %struct.Exnode_s, ptr %175, i32 0, i32 1
  %177 = load i64, ptr %176, align 8, !tbaa !101
  switch i64 %177, label %261 [
    i64 324, label %178
    i64 325, label %193
    i64 60, label %205
    i64 326, label %219
    i64 327, label %233
    i64 62, label %247
  ]

178:                                              ; preds = %174
  %179 = load i32, ptr %9, align 4, !tbaa !26
  %180 = icmp ne i32 %179, 0
  br i1 %180, label %181, label %182

181:                                              ; preds = %178
  store i32 0, ptr %5, align 4
  store i32 1, ptr %13, align 4
  br label %263

182:                                              ; preds = %178
  %183 = load ptr, ptr %10, align 8, !tbaa !98
  %184 = load ptr, ptr %11, align 8, !tbaa !98
  %185 = call i32 @compare(ptr noundef %183, ptr noundef %184)
  %186 = icmp ne i32 %185, 0
  %187 = xor i1 %186, true
  %188 = zext i1 %187 to i32
  %189 = sext i32 %188 to i64
  %190 = load ptr, ptr %6, align 8, !tbaa !75
  %191 = getelementptr inbounds nuw %struct.Exnode_s, ptr %190, i32 0, i32 4
  %192 = getelementptr inbounds nuw %struct.anon, ptr %191, i32 0, i32 0
  store i64 %189, ptr %192, align 8, !tbaa !97
  store i32 0, ptr %12, align 4, !tbaa !26
  br label %261

193:                                              ; preds = %174
  %194 = load i32, ptr %9, align 4, !tbaa !26
  %195 = icmp ne i32 %194, 0
  br i1 %195, label %196, label %197

196:                                              ; preds = %193
  store i32 0, ptr %5, align 4
  store i32 1, ptr %13, align 4
  br label %263

197:                                              ; preds = %193
  %198 = load ptr, ptr %10, align 8, !tbaa !98
  %199 = load ptr, ptr %11, align 8, !tbaa !98
  %200 = call i32 @compare(ptr noundef %198, ptr noundef %199)
  %201 = sext i32 %200 to i64
  %202 = load ptr, ptr %6, align 8, !tbaa !75
  %203 = getelementptr inbounds nuw %struct.Exnode_s, ptr %202, i32 0, i32 4
  %204 = getelementptr inbounds nuw %struct.anon, ptr %203, i32 0, i32 0
  store i64 %201, ptr %204, align 8, !tbaa !97
  store i32 0, ptr %12, align 4, !tbaa !26
  br label %261

205:                                              ; preds = %174
  %206 = load i32, ptr %9, align 4, !tbaa !26
  %207 = icmp ne i32 %206, 0
  br i1 %207, label %208, label %209

208:                                              ; preds = %205
  store i32 0, ptr %5, align 4
  store i32 1, ptr %13, align 4
  br label %263

209:                                              ; preds = %205
  %210 = load ptr, ptr %10, align 8, !tbaa !98
  %211 = load ptr, ptr %11, align 8, !tbaa !98
  %212 = call i32 @compare(ptr noundef %210, ptr noundef %211)
  %213 = icmp slt i32 %212, 0
  %214 = zext i1 %213 to i32
  %215 = sext i32 %214 to i64
  %216 = load ptr, ptr %6, align 8, !tbaa !75
  %217 = getelementptr inbounds nuw %struct.Exnode_s, ptr %216, i32 0, i32 4
  %218 = getelementptr inbounds nuw %struct.anon, ptr %217, i32 0, i32 0
  store i64 %215, ptr %218, align 8, !tbaa !97
  store i32 0, ptr %12, align 4, !tbaa !26
  br label %261

219:                                              ; preds = %174
  %220 = load i32, ptr %9, align 4, !tbaa !26
  %221 = icmp ne i32 %220, 0
  br i1 %221, label %222, label %223

222:                                              ; preds = %219
  store i32 0, ptr %5, align 4
  store i32 1, ptr %13, align 4
  br label %263

223:                                              ; preds = %219
  %224 = load ptr, ptr %10, align 8, !tbaa !98
  %225 = load ptr, ptr %11, align 8, !tbaa !98
  %226 = call i32 @compare(ptr noundef %224, ptr noundef %225)
  %227 = icmp sle i32 %226, 0
  %228 = zext i1 %227 to i32
  %229 = sext i32 %228 to i64
  %230 = load ptr, ptr %6, align 8, !tbaa !75
  %231 = getelementptr inbounds nuw %struct.Exnode_s, ptr %230, i32 0, i32 4
  %232 = getelementptr inbounds nuw %struct.anon, ptr %231, i32 0, i32 0
  store i64 %229, ptr %232, align 8, !tbaa !97
  store i32 0, ptr %12, align 4, !tbaa !26
  br label %261

233:                                              ; preds = %174
  %234 = load i32, ptr %9, align 4, !tbaa !26
  %235 = icmp ne i32 %234, 0
  br i1 %235, label %236, label %237

236:                                              ; preds = %233
  store i32 0, ptr %5, align 4
  store i32 1, ptr %13, align 4
  br label %263

237:                                              ; preds = %233
  %238 = load ptr, ptr %10, align 8, !tbaa !98
  %239 = load ptr, ptr %11, align 8, !tbaa !98
  %240 = call i32 @compare(ptr noundef %238, ptr noundef %239)
  %241 = icmp sge i32 %240, 0
  %242 = zext i1 %241 to i32
  %243 = sext i32 %242 to i64
  %244 = load ptr, ptr %6, align 8, !tbaa !75
  %245 = getelementptr inbounds nuw %struct.Exnode_s, ptr %244, i32 0, i32 4
  %246 = getelementptr inbounds nuw %struct.anon, ptr %245, i32 0, i32 0
  store i64 %243, ptr %246, align 8, !tbaa !97
  store i32 0, ptr %12, align 4, !tbaa !26
  br label %261

247:                                              ; preds = %174
  %248 = load i32, ptr %9, align 4, !tbaa !26
  %249 = icmp ne i32 %248, 0
  br i1 %249, label %250, label %251

250:                                              ; preds = %247
  store i32 0, ptr %5, align 4
  store i32 1, ptr %13, align 4
  br label %263

251:                                              ; preds = %247
  %252 = load ptr, ptr %10, align 8, !tbaa !98
  %253 = load ptr, ptr %11, align 8, !tbaa !98
  %254 = call i32 @compare(ptr noundef %252, ptr noundef %253)
  %255 = icmp sgt i32 %254, 0
  %256 = zext i1 %255 to i32
  %257 = sext i32 %256 to i64
  %258 = load ptr, ptr %6, align 8, !tbaa !75
  %259 = getelementptr inbounds nuw %struct.Exnode_s, ptr %258, i32 0, i32 4
  %260 = getelementptr inbounds nuw %struct.anon, ptr %259, i32 0, i32 0
  store i64 %257, ptr %260, align 8, !tbaa !97
  store i32 0, ptr %12, align 4, !tbaa !26
  br label %261

261:                                              ; preds = %174, %251, %237, %223, %209, %197, %182
  %262 = load i32, ptr %12, align 4, !tbaa !26
  store i32 %262, ptr %5, align 4
  store i32 1, ptr %13, align 4
  br label %263

263:                                              ; preds = %261, %250, %236, %222, %208, %196, %181, %158, %147, %55, %49, %40, %29, %20
  call void @llvm.lifetime.end.p0(i64 4, ptr %12) #16
  call void @llvm.lifetime.end.p0(i64 8, ptr %11) #16
  call void @llvm.lifetime.end.p0(i64 8, ptr %10) #16
  %264 = load i32, ptr %5, align 4
  ret i32 %264
}